target datalayout = "e-m:e-p270:32:32-p271:32:32-p272:64:64-i64:64-i128:128-f80:128-n8:16:32:64-S128"
target triple = "x86_64-pc-linux-gnu"

%struct.pmix_list_t = type { %struct.pmix_object_t, %struct.pmix_list_item_t, i64 }
%struct.pmix_object_t = type { %union.pthread_mutex_t, ptr, i32, %struct.pmix_tma }
%union.pthread_mutex_t = type { %struct.__pthread_mutex_s }
%struct.__pthread_mutex_s = type { i32, i32, i32, i32, i32, i16, i16, %struct.__pthread_internal_list }
%struct.__pthread_internal_list = type { ptr, ptr }
%struct.pmix_tma = type { ptr, ptr, ptr, ptr, ptr, ptr, ptr, ptr }
%struct.pmix_list_item_t = type { %struct.pmix_object_t, ptr, ptr, i32 }
%struct.pmix_class_t = type { ptr, ptr, ptr, ptr, i32, i32, ptr, ptr, i64 }
%struct.prte_state_t = type { %struct.pmix_list_item_t, i32, i32, ptr }

@prte_proc_states = external global %struct.pmix_list_t, align 8
@.str.59 = private unnamed_addr constant [21 x i8] c"pthread_mutex_lock()\00", align 1

; Function Attrs: inlinehint nounwind uwtable
define internal void @pmix_tma_free(ptr noundef %0, ptr noundef %1) #2 {
  %3 = alloca ptr, align 8
  %4 = alloca ptr, align 8
  store ptr %0, ptr %3, align 8, !tbaa !52
  store ptr %1, ptr %4, align 8, !tbaa !3
  %5 = load ptr, ptr %3, align 8, !tbaa !52
  %6 = icmp ne ptr null, %5
  br i1 %6, label %7, label %13

7:                                                ; preds = %2
  %8 = load ptr, ptr %3, align 8, !tbaa !52
  %9 = getelementptr inbounds nuw %struct.pmix_tma, ptr %8, i32 0, i32 5
  %10 = load ptr, ptr %9, align 8, !tbaa !76
  %11 = load ptr, ptr %3, align 8, !tbaa !52
  %12 = load ptr, ptr %4, align 8, !tbaa !3
  call void %10(ptr noundef %11, ptr noundef %12)
  br label %15

13:                                               ; preds = %2
  %14 = load ptr, ptr %4, align 8, !tbaa !3
  call void @free(ptr noundef %14) #13
  br label %15

15:                                               ; preds = %13, %7
  ret void
}

; Function Attrs: inlinehint nounwind uwtable
define internal void @pmix_obj_run_destructors(ptr noundef %0) #2 {
  %2 = alloca ptr, align 8
  %3 = alloca ptr, align 8
  store ptr %0, ptr %2, align 8, !tbaa !56
  call void @llvm.lifetime.start.p0(i64 8, ptr %3) #13
  %4 = load ptr, ptr %2, align 8, !tbaa !56
  %5 = getelementptr inbounds nuw %struct.pmix_object_t, ptr %4, i32 0, i32 1
  %6 = load ptr, ptr %5, align 8, !tbaa !59
  %7 = getelementptr inbounds nuw %struct.pmix_class_t, ptr %6, i32 0, i32 7
  %8 = load ptr, ptr %7, align 8, !tbaa !74
  store ptr %8, ptr %3, align 8, !tbaa !3
  br label %9

9:                                                ; preds = %13, %1
  %10 = load ptr, ptr %3, align 8, !tbaa !3
  %11 = load ptr, ptr %10, align 8, !tbaa !3
  %12 = icmp ne ptr null, %11
  br i1 %12, label %13, label %19

13:                                               ; preds = %9
  %14 = load ptr, ptr %3, align 8, !tbaa !3
  %15 = load ptr, ptr %14, align 8, !tbaa !3
  %16 = load ptr, ptr %2, align 8, !tbaa !56
  call void %15(ptr noundef %16)
  %17 = load ptr, ptr %3, align 8, !tbaa !3
  %18 = getelementptr inbounds nuw ptr, ptr %17, i32 1
  store ptr %18, ptr %3, align 8, !tbaa !3
  br label %9, !llvm.loop !75

19:                                               ; preds = %9
  call void @llvm.lifetime.end.p0(i64 8, ptr %3) #13
  ret void
}

; Function Attrs: alwaysinline nounwind uwtable
define internal i32 @pmix_obj_update(ptr noundef %0, i32 noundef %1) #5 {
  %3 = alloca ptr, align 8
  %4 = alloca i32, align 4
  %5 = alloca i32, align 4
  store ptr %0, ptr %3, align 8, !tbaa !56
  store i32 %1, ptr %4, align 4, !tbaa !7
  call void @llvm.lifetime.start.p0(i64 4, ptr %5) #13
  %6 = load ptr, ptr %3, align 8, !tbaa !56
  %7 = getelementptr inbounds nuw %struct.pmix_object_t, ptr %6, i32 0, i32 0
  %8 = call i32 @pthread_mutex_lock(ptr noundef %7) #13
  store i32 %8, ptr %5, align 4, !tbaa !7
  %9 = load i32, ptr %5, align 4, !tbaa !7
  %10 = icmp eq i32 %9, 35
  br i1 %10, label %11, label %14

11:                                               ; preds = %2
  %12 = load i32, ptr %5, align 4, !tbaa !7
  %13 = call ptr @__errno_location() #14
  store i32 %12, ptr %13, align 4, !tbaa !7
  call void @perror(ptr noundef @.str.59)
  call void @abort() #15
  unreachable

14:                                               ; preds = %2
  %15 = load i32, ptr %4, align 4, !tbaa !7
  %16 = load ptr, ptr %3, align 8, !tbaa !56
  %17 = getelementptr inbounds nuw %struct.pmix_object_t, ptr %16, i32 0, i32 2
  %18 = load i32, ptr %17, align 8, !tbaa !60
  %19 = add nsw i32 %18, %15
  store i32 %19, ptr %17, align 8, !tbaa !60
  store i32 %19, ptr %5, align 4, !tbaa !7
  %20 = load ptr, ptr %3, align 8, !tbaa !56
  %21 = getelementptr inbounds nuw %struct.pmix_object_t, ptr %20, i32 0, i32 0
  %22 = call i32 @pthread_mutex_unlock(ptr noundef %21) #13
  %23 = load i32, ptr %5, align 4, !tbaa !7
  call void @llvm.lifetime.end.p0(i64 4, ptr %5) #13
  ret i32 %23
}

; Function Attrs: inlinehint nounwind uwtable
define internal ptr @pmix_list_remove_item(ptr noundef %0, ptr noundef %1) #2 {
  %3 = alloca ptr, align 8
  %4 = alloca ptr, align 8
  store ptr %0, ptr %3, align 8, !tbaa !48
  store ptr %1, ptr %4, align 8, !tbaa !9
  %5 = load ptr, ptr %4, align 8, !tbaa !9
  %6 = getelementptr inbounds nuw %struct.pmix_list_item_t, ptr %5, i32 0, i32 1
  %7 = load ptr, ptr %6, align 8, !tbaa !45
  %8 = load ptr, ptr %4, align 8, !tbaa !9
  %9 = getelementptr inbounds nuw %struct.pmix_list_item_t, ptr %8, i32 0, i32 2
  %10 = load ptr, ptr %9, align 8, !tbaa !70
  %11 = getelementptr inbounds nuw %struct.pmix_list_item_t, ptr %10, i32 0, i32 1
  store volatile ptr %7, ptr %11, align 8, !tbaa !45
  %12 = load ptr, ptr %4, align 8, !tbaa !9
  %13 = getelementptr inbounds nuw %struct.pmix_list_item_t, ptr %12, i32 0, i32 2
  %14 = load ptr, ptr %13, align 8, !tbaa !70
  %15 = load ptr, ptr %4, align 8, !tbaa !9
  %16 = getelementptr inbounds nuw %struct.pmix_list_item_t, ptr %15, i32 0, i32 1
  %17 = load ptr, ptr %16, align 8, !tbaa !45
  %18 = getelementptr inbounds nuw %struct.pmix_list_item_t, ptr %17, i32 0, i32 2
  store volatile ptr %14, ptr %18, align 8, !tbaa !70
  %19 = load ptr, ptr %3, align 8, !tbaa !48
  %20 = getelementptr inbounds nuw %struct.pmix_list_t, ptr %19, i32 0, i32 2
  %21 = load volatile i64, ptr %20, align 8, !tbaa !71
  %22 = add i64 %21, -1
  store volatile i64 %22, ptr %20, align 8, !tbaa !71
  %23 = load ptr, ptr %4, align 8, !tbaa !9
  %24 = getelementptr inbounds nuw %struct.pmix_list_item_t, ptr %23, i32 0, i32 2
  %25 = load ptr, ptr %24, align 8, !tbaa !70
  ret ptr %25
}

; Function Attrs: inlinehint nounwind uwtable
define internal ptr @pmix_list_get_end(ptr noundef %0) #2 {
  %2 = alloca ptr, align 8
  store ptr %0, ptr %2, align 8, !tbaa !48
  %3 = load ptr, ptr %2, align 8, !tbaa !48
  %4 = getelementptr inbounds nuw %struct.pmix_list_t, ptr %3, i32 0, i32 1
  ret ptr %4
}

; Function Attrs: inlinehint nounwind uwtable
define internal ptr @pmix_list_get_first(ptr noundef %0) #2 {
  %2 = alloca ptr, align 8
  %3 = alloca ptr, align 8
  store ptr %0, ptr %2, align 8, !tbaa !48
  call void @llvm.lifetime.start.p0(i64 8, ptr %3) #13
  %4 = load ptr, ptr %2, align 8, !tbaa !48
  %5 = getelementptr inbounds nuw %struct.pmix_list_t, ptr %4, i32 0, i32 1
  %6 = getelementptr inbounds nuw %struct.pmix_list_item_t, ptr %5, i32 0, i32 1
  %7 = load ptr, ptr %6, align 8, !tbaa !50
  store ptr %7, ptr %3, align 8, !tbaa !9
  %8 = load ptr, ptr %3, align 8, !tbaa !9
  call void @llvm.lifetime.end.p0(i64 8, ptr %3) #13
  ret ptr %8
}

; Function Attrs: nounwind uwtable
define i32 @prte_state_base_remove_proc_state(i32 noundef %0) #0 {
  %2 = alloca i32, align 4
  %3 = alloca i32, align 4
  %4 = alloca ptr, align 8
  %5 = alloca ptr, align 8
  %6 = alloca ptr, align 8
  %7 = alloca i32, align 4
  store i32 %0, ptr %3, align 4, !tbaa !7
  call void @llvm.lifetime.start.p0(i64 8, ptr %4) #13
  call void @llvm.lifetime.start.p0(i64 8, ptr %5) #13
  %8 = call ptr @pmix_list_get_first(ptr noundef @prte_proc_states)
  store ptr %8, ptr %4, align 8, !tbaa !9
  br label %9

9:                                                ; preds = %54, %1
  %10 = load ptr, ptr %4, align 8, !tbaa !9
  %11 = call ptr @pmix_list_get_end(ptr noundef @prte_proc_states)
  %12 = icmp ne ptr %10, %11
  br i1 %12, label %13, label %56

13:                                               ; preds = %9
  %14 = load ptr, ptr %4, align 8, !tbaa !9
  store ptr %14, ptr %5, align 8, !tbaa !3
  %15 = load ptr, ptr %5, align 8, !tbaa !3
  %16 = getelementptr inbounds nuw %struct.prte_state_t, ptr %15, i32 0, i32 2
  %17 = load i32, ptr %16, align 4, !tbaa !80
  %18 = load i32, ptr %3, align 4, !tbaa !7
  %19 = icmp eq i32 %17, %18
  br i1 %19, label %20, label %45

20:                                               ; preds = %13
  %21 = load ptr, ptr %4, align 8, !tbaa !9
  %22 = call ptr @pmix_list_remove_item(ptr noundef @prte_proc_states, ptr noundef %21)
  br label %23

23:                                               ; preds = %20
  call void @llvm.lifetime.start.p0(i64 8, ptr %6) #13
  %24 = load ptr, ptr %4, align 8, !tbaa !9
  store ptr %24, ptr %6, align 8, !tbaa !56
  %25 = load ptr, ptr %6, align 8, !tbaa !56
  %26 = call i32 @pmix_obj_update(ptr noundef %25, i32 noundef -1)
  %27 = icmp eq i32 0, %26
  br i1 %27, label %28, label %42

28:                                               ; preds = %23
  %29 = load ptr, ptr %6, align 8, !tbaa !56
  call void @pmix_obj_run_destructors(ptr noundef %29)
  %30 = load ptr, ptr %6, align 8, !tbaa !56
  %31 = getelementptr inbounds nuw %struct.pmix_object_t, ptr %30, i32 0, i32 3
  %32 = getelementptr inbounds nuw %struct.pmix_tma, ptr %31, i32 0, i32 5
  %33 = load ptr, ptr %32, align 8, !tbaa !65
  %34 = icmp ne ptr null, %33
  br i1 %34, label %35, label %39

35:                                               ; preds = %28
  %36 = load ptr, ptr %6, align 8, !tbaa !56
  %37 = getelementptr inbounds nuw %struct.pmix_object_t, ptr %36, i32 0, i32 3
  %38 = load ptr, ptr %4, align 8, !tbaa !9
  call void @pmix_tma_free(ptr noundef %37, ptr noundef %38)
  br label %41

39:                                               ; preds = %28
  %40 = load ptr, ptr %4, align 8, !tbaa !9
  call void @free(ptr noundef %40) #13
  br label %41

41:                                               ; preds = %39, %35
  store ptr null, ptr %4, align 8, !tbaa !9
  br label %42

42:                                               ; preds = %41, %23
  call void @llvm.lifetime.end.p0(i64 8, ptr %6) #13
  br label %43

43:                                               ; preds = %42
  br label %44

44:                                               ; preds = %43
  store i32 0, ptr %2, align 4
  store i32 1, ptr %7, align 4
  br label %57

45:                                               ; preds = %13
  br label %46

46:                                               ; preds = %45
  %47 = load ptr, ptr %4, align 8, !tbaa !9
  %48 = icmp ne ptr %47, null
  br i1 %48, label %49, label %53

49:                                               ; preds = %46
  %50 = load ptr, ptr %4, align 8, !tbaa !9
  %51 = getelementptr inbounds nuw %struct.pmix_list_item_t, ptr %50, i32 0, i32 1
  %52 = load ptr, ptr %51, align 8, !tbaa !45
  br label %54

53:                                               ; preds = %46
  br label %54

54:                                               ; preds = %53, %49
  %55 = phi ptr [ %52, %49 ], [ null, %53 ]
  store ptr %55, ptr %4, align 8, !tbaa !9
  br label %9, !llvm.loop !87

56:                                               ; preds = %9
  store i32 -13, ptr %2, align 4
  store i32 1, ptr %7, align 4
  br label %57

57:                                               ; preds = %56, %44
  call void @llvm.lifetime.end.p0(i64 8, ptr %5) #13
  call void @llvm.lifetime.end.p0(i64 8, ptr %4) #13
  %58 = load i32, ptr %2, align 4
  ret i32 %58
}